; Function Attrs: nounwind uwtable
define hidden void @destroy_phar_manifest_entry(ptr nocapture noundef readonly %0) #0 {
  %2 = load ptr, ptr %0, align 8
  tail call void @destroy_phar_manifest_entry_int(ptr noundef %2)
  %3 = getelementptr inbounds i8, ptr %2, i64 154
  %4 = load i16, ptr %3, align 2
  %5 = and i16 %4, 256
  %.not = icmp eq i16 %5, 0
  br i1 %.not, label %7, label %6

6:                                                ; preds = %1
  tail call void @free(ptr noundef nonnull %2) #23
  br label %8

7:                                                ; preds = %1
  tail call void @_efree(ptr noundef nonnull %2) #23
  br label %8

8:                                                ; preds = %7, %6
  ret void
}